; Function Attrs: mustprogress nofree norecurse nosync nounwind willreturn memory(argmem: write) uwtable
define void @_ZN14b2PolygonShapeC2Ev(ptr nocapture noundef nonnull writeonly align 8 dereferenceable(156) %this) unnamed_addr #0 align 2 personality ptr @__gxx_personality_v0 {
entry:
  store ptr getelementptr inbounds ({ [10 x ptr] }, ptr @_ZTV14b2PolygonShape, i64 0, i32 0, i64 2), ptr %this, align 8
  %m_type = getelementptr inbounds i8, ptr %this, i64 8
  store i32 2, ptr %m_type, align 8
  %m_radius = getelementptr inbounds i8, ptr %this, i64 12
  %m_count = getelementptr inbounds i8, ptr %this, i64 152
  store i32 0, ptr %m_count, align 8
  store <2 x float> <float 0x3F847AE140000000, float 0.000000e+00>, ptr %m_radius, align 4
  %y.i = getelementptr inbounds i8, ptr %this, i64 20
  store float 0.000000e+00, ptr %y.i, align 4
  ret void
}